0000000000053810 <CGEMV>:
   53810:	41 54                	push   %r12
   53812:	41 55                	push   %r13
   53814:	41 56                	push   %r14
   53816:	41 57                	push   %r15
   53818:	53                   	push   %rbx
   53819:	55                   	push   %rbp
   5381a:	48 81 ec 08 01 00 00 	sub    $0x108,%rsp
   53821:	4d 89 cc             	mov    %r9,%r12
   53824:	4c 8d 15 ad ef 60 04 	lea    0x460efad(%rip),%r10        # 46627d8 <mkl_serv_inspector_loaded>
   5382b:	49 89 cf             	mov    %rcx,%r15
   5382e:	4c 89 04 24          	mov    %r8,(%rsp)
   53832:	49 89 d5             	mov    %rdx,%r13
   53835:	4c 89 94 24 f8 00 00 	mov    %r10,0xf8(%rsp)
   5383c:	00 
   5383d:	48 89 f5             	mov    %rsi,%rbp
   53840:	45 8b 1a             	mov    (%r10),%r11d
   53843:	49 89 fe             	mov    %rdi,%r14
   53846:	45 85 db             	test   %r11d,%r11d
   53849:	74 05                	je     53850 <CGEMV+0x40>
   5384b:	e8 10 f6 b6 00       	callq  bc2e60 <mkl_serv_inspector_suppress>
   53850:	48 8d 3d 09 2c 00 00 	lea    0x2c09(%rip),%rdi        # 56460 <cdecl_xerbla>
   53857:	e8 14 2c 00 00       	callq  56470 <mkl_set_xerbla_interface>
   5385c:	4c 8b 15 6d ed 60 04 	mov    0x460ed6d(%rip),%r10        # 46625d0 <verbose_ptr.309.0.1>
   53863:	4c 89 f7             	mov    %r14,%rdi
   53866:	66 0f ef c0          	pxor   %xmm0,%xmm0
   5386a:	48 89 ee             	mov    %rbp,%rsi
   5386d:	f2 0f 11 84 24 f0 00 	movsd  %xmm0,0xf0(%rsp)
   53874:	00 00 
   53876:	4c 89 ea             	mov    %r13,%rdx
   53879:	6a 01                	pushq  $0x1
   5387b:	ff b4 24 68 01 00 00 	pushq  0x168(%rsp)
   53882:	ff b4 24 68 01 00 00 	pushq  0x168(%rsp)
   53889:	ff b4 24 68 01 00 00 	pushq  0x168(%rsp)
   53890:	ff b4 24 68 01 00 00 	pushq  0x168(%rsp)
   53897:	ff b4 24 68 01 00 00 	pushq  0x168(%rsp)
   5389e:	4c 89 f9             	mov    %r15,%rcx
   538a1:	4d 89 e1             	mov    %r12,%r9
   538a4:	4c 8b 44 24 30       	mov    0x30(%rsp),%r8
   538a9:	41 8b 1a             	mov    (%r10),%ebx
   538ac:	e8 8f 64 00 00       	callq  59d40 <mkl_blas_errchk_cgemv>
   538b1:	48 83 c4 30          	add    $0x30,%rsp
   538b5:	85 c0                	test   %eax,%eax
   538b7:	0f 85 ca 02 00 00    	jne    53b87 <CGEMV+0x377>
   538bd:	4c 63 55 00          	movslq 0x0(%rbp),%r10
   538c1:	4c 89 94 24 c8 00 00 	mov    %r10,0xc8(%rsp)
   538c8:	00 
   538c9:	4d 63 14 24          	movslq (%r12),%r10
   538cd:	4c 89 94 24 d8 00 00 	mov    %r10,0xd8(%rsp)
   538d4:	00 
   538d5:	4c 8b 94 24 48 01 00 	mov    0x148(%rsp),%r10
   538dc:	00 
   538dd:	4d 63 5d 00          	movslq 0x0(%r13),%r11
   538e1:	4c 89 9c 24 d0 00 00 	mov    %r11,0xd0(%rsp)
   538e8:	00 
   538e9:	4d 63 12             	movslq (%r10),%r10
   538ec:	4c 89 94 24 e0 00 00 	mov    %r10,0xe0(%rsp)
   538f3:	00 
   538f4:	4c 8b 94 24 60 01 00 	mov    0x160(%rsp),%r10
   538fb:	00 
   538fc:	4d 63 12             	movslq (%r10),%r10
   538ff:	4c 89 94 24 e8 00 00 	mov    %r10,0xe8(%rsp)
   53906:	00 
   53907:	85 db                	test   %ebx,%ebx
   53909:	75 7a                	jne    53985 <CGEMV+0x175>
   5390b:	4c 89 f7             	mov    %r14,%rdi
   5390e:	48 8d 9c 24 e8 00 00 	lea    0xe8(%rsp),%rbx
   53915:	00 
   53916:	4c 89 f9             	mov    %r15,%rcx
   53919:	48 8d ac 24 e0 00 00 	lea    0xe0(%rsp),%rbp
   53920:	00 
   53921:	6a 01                	pushq  $0x1
   53923:	53                   	push   %rbx
   53924:	ff b4 24 68 01 00 00 	pushq  0x168(%rsp)
   5392b:	ff b4 24 68 01 00 00 	pushq  0x168(%rsp)
   53932:	55                   	push   %rbp
   53933:	ff b4 24 68 01 00 00 	pushq  0x168(%rsp)
   5393a:	4c 8b 44 24 30       	mov    0x30(%rsp),%r8
   5393f:	48 8d b4 24 f8 00 00 	lea    0xf8(%rsp),%rsi
   53946:	00 
   53947:	48 8d 94 24 00 01 00 	lea    0x100(%rsp),%rdx
   5394e:	00 
   5394f:	4c 8d 8c 24 08 01 00 	lea    0x108(%rsp),%r9
   53956:	00 
   53957:	e8 74 dc 00 00       	callq  615d0 <mkl_blas_cgemv>
   5395c:	48 83 c4 30          	add    $0x30,%rsp
   53960:	48 8b 84 24 f8 00 00 	mov    0xf8(%rsp),%rax
   53967:	00 
   53968:	8b 10                	mov    (%rax),%edx
   5396a:	85 d2                	test   %edx,%edx
   5396c:	74 05                	je     53973 <CGEMV+0x163>
   5396e:	e8 8d f4 b6 00       	callq  bc2e00 <mkl_serv_inspector_unsuppress>
   53973:	48 81 c4 08 01 00 00 	add    $0x108,%rsp
   5397a:	5d                   	pop    %rbp
   5397b:	5b                   	pop    %rbx
   5397c:	41 5f                	pop    %r15
   5397e:	41 5e                	pop    %r14
   53980:	41 5d                	pop    %r13
   53982:	41 5c                	pop    %r12
   53984:	c3                   	retq   
   53985:	83 fb ff             	cmp    $0xffffffff,%ebx
   53988:	0f 84 e8 01 00 00    	je     53b76 <CGEMV+0x366>
   5398e:	48 8b 05 3b ec 60 04 	mov    0x460ec3b(%rip),%rax        # 46625d0 <verbose_ptr.309.0.1>
   53995:	8b 18                	mov    (%rax),%ebx
   53997:	83 fb 01             	cmp    $0x1,%ebx
   5399a:	0f 84 bc 01 00 00    	je     53b5c <CGEMV+0x34c>
   539a0:	4c 89 f7             	mov    %r14,%rdi
   539a3:	4c 8d 94 24 e8 00 00 	lea    0xe8(%rsp),%r10
   539aa:	00 
   539ab:	4c 89 f9             	mov    %r15,%rcx
   539ae:	4c 8d 9c 24 e0 00 00 	lea    0xe0(%rsp),%r11
   539b5:	00 
   539b6:	6a 01                	pushq  $0x1
   539b8:	41 52                	push   %r10
   539ba:	ff b4 24 68 01 00 00 	pushq  0x168(%rsp)
   539c1:	ff b4 24 68 01 00 00 	pushq  0x168(%rsp)
   539c8:	41 53                	push   %r11
   539ca:	ff b4 24 68 01 00 00 	pushq  0x168(%rsp)
   539d1:	4c 8b 44 24 30       	mov    0x30(%rsp),%r8
   539d6:	48 8d b4 24 f8 00 00 	lea    0xf8(%rsp),%rsi
   539dd:	00 
   539de:	48 8d 94 24 00 01 00 	lea    0x100(%rsp),%rdx
   539e5:	00 
   539e6:	4c 8d 8c 24 08 01 00 	lea    0x108(%rsp),%r9
   539ed:	00 
   539ee:	e8 dd db 00 00       	callq  615d0 <mkl_blas_cgemv>
   539f3:	48 83 c4 30          	add    $0x30,%rsp
   539f7:	85 db                	test   %ebx,%ebx
   539f9:	75 25                	jne    53a20 <CGEMV+0x210>
   539fb:	48 8b 84 24 f8 00 00 	mov    0xf8(%rsp),%rax
   53a02:	00 
   53a03:	8b 10                	mov    (%rax),%edx
   53a05:	85 d2                	test   %edx,%edx
   53a07:	74 05                	je     53a0e <CGEMV+0x1fe>
   53a09:	e8 f2 f3 b6 00       	callq  bc2e00 <mkl_serv_inspector_unsuppress>
   53a0e:	48 81 c4 08 01 00 00 	add    $0x108,%rsp
   53a15:	5d                   	pop    %rbp
   53a16:	5b                   	pop    %rbx
   53a17:	41 5f                	pop    %r15
   53a19:	41 5e                	pop    %r14
   53a1b:	41 5d                	pop    %r13
   53a1d:	41 5c                	pop    %r12
   53a1f:	c3                   	retq   
   53a20:	f2 0f 10 84 24 f0 00 	movsd  0xf0(%rsp),%xmm0
   53a27:	00 00 
   53a29:	66 0f ef c9          	pxor   %xmm1,%xmm1
   53a2d:	48 8b 1c 24          	mov    (%rsp),%rbx
   53a31:	48 8b 84 24 60 01 00 	mov    0x160(%rsp),%rax
   53a38:	00 
   53a39:	4c 8b 9c 24 58 01 00 	mov    0x158(%rsp),%r11
   53a40:	00 
   53a41:	4c 8b 94 24 50 01 00 	mov    0x150(%rsp),%r10
   53a48:	00 
   53a49:	48 8b 94 24 48 01 00 	mov    0x148(%rsp),%rdx
   53a50:	00 
   53a51:	4c 8b 84 24 40 01 00 	mov    0x140(%rsp),%r8
   53a58:	00 
   53a59:	66 0f 2e c1          	ucomisd %xmm1,%xmm0
   53a5d:	7a 02                	jp     53a61 <CGEMV+0x251>
   53a5f:	74 46                	je     53aa7 <CGEMV+0x297>
   53a61:	e8 9a 29 00 00       	callq  56400 <mkl_serv_iface_dsecnd>
   53a66:	4c 8b 84 24 40 01 00 	mov    0x140(%rsp),%r8
   53a6d:	00 
   53a6e:	0f 28 c8             	movaps %xmm0,%xmm1
   53a71:	48 8b 94 24 48 01 00 	mov    0x148(%rsp),%rdx
   53a78:	00 
   53a79:	4c 8b 94 24 50 01 00 	mov    0x150(%rsp),%r10
   53a80:	00 
   53a81:	4c 8b 9c 24 58 01 00 	mov    0x158(%rsp),%r11
   53a88:	00 
   53a89:	48 8b 84 24 60 01 00 	mov    0x160(%rsp),%rax
   53a90:	00 
   53a91:	f2 0f 10 84 24 f0 00 	movsd  0xf0(%rsp),%xmm0
   53a98:	00 00 
   53a9a:	f2 0f 58 c1          	addsd  %xmm1,%xmm0
   53a9e:	f2 0f 11 84 24 f0 00 	movsd  %xmm0,0xf0(%rsp)
   53aa5:	00 00 
   53aa7:	48 85 ed             	test   %rbp,%rbp
   53aaa:	74 06                	je     53ab2 <CGEMV+0x2a2>
   53aac:	44 8b 4d 00          	mov    0x0(%rbp),%r9d
   53ab0:	eb 03                	jmp    53ab5 <CGEMV+0x2a5>
   53ab2:	45 33 c9             	xor    %r9d,%r9d
   53ab5:	4d 85 ed             	test   %r13,%r13
   53ab8:	74 06                	je     53ac0 <CGEMV+0x2b0>
   53aba:	41 8b 75 00          	mov    0x0(%r13),%esi
   53abe:	eb 02                	jmp    53ac2 <CGEMV+0x2b2>
   53ac0:	33 f6                	xor    %esi,%esi
   53ac2:	4d 85 e4             	test   %r12,%r12
   53ac5:	74 06                	je     53acd <CGEMV+0x2bd>
   53ac7:	41 8b 2c 24          	mov    (%r12),%ebp
   53acb:	eb 02                	jmp    53acf <CGEMV+0x2bf>
   53acd:	33 ed                	xor    %ebp,%ebp
   53acf:	48 85 d2             	test   %rdx,%rdx
   53ad2:	74 04                	je     53ad8 <CGEMV+0x2c8>
   53ad4:	8b 12                	mov    (%rdx),%edx
   53ad6:	eb 02                	jmp    53ada <CGEMV+0x2ca>
   53ad8:	33 d2                	xor    %edx,%edx
   53ada:	48 85 c0             	test   %rax,%rax
   53add:	74 05                	je     53ae4 <CGEMV+0x2d4>
   53adf:	44 8b 28             	mov    (%rax),%r13d
   53ae2:	eb 03                	jmp    53ae7 <CGEMV+0x2d7>
   53ae4:	45 33 ed             	xor    %r13d,%r13d
   53ae7:	48 83 c4 b0          	add    $0xffffffffffffffb0,%rsp
   53aeb:	48 8d 0d fe ad 26 04 	lea    0x426adfe(%rip),%rcx        # 42be8f0 <verbose_unknown.309.0.1+0x20>
   53af2:	33 c0                	xor    %eax,%eax
   53af4:	48 8d 7c 24 50       	lea    0x50(%rsp),%rdi
   53af9:	89 34 24             	mov    %esi,(%rsp)
   53afc:	be c8 00 00 00       	mov    $0xc8,%esi
   53b01:	4c 89 7c 24 08       	mov    %r15,0x8(%rsp)
   53b06:	48 89 5c 24 10       	mov    %rbx,0x10(%rsp)
   53b0b:	89 6c 24 18          	mov    %ebp,0x18(%rsp)
   53b0f:	4c 89 44 24 20       	mov    %r8,0x20(%rsp)
   53b14:	89 54 24 28          	mov    %edx,0x28(%rsp)
   53b18:	ba c7 00 00 00       	mov    $0xc7,%edx
   53b1d:	45 0f be 06          	movsbl (%r14),%r8d
   53b21:	4c 89 54 24 30       	mov    %r10,0x30(%rsp)
   53b26:	4c 89 5c 24 38       	mov    %r11,0x38(%rsp)
   53b2b:	44 89 6c 24 40       	mov    %r13d,0x40(%rsp)
   53b30:	e8 7b e5 01 00       	callq  720b0 <mkl_serv_snprintf_s>
   53b35:	48 83 c4 50          	add    $0x50,%rsp
   53b39:	f2 0f 10 84 24 f0 00 	movsd  0xf0(%rsp),%xmm0
   53b40:	00 00 
   53b42:	48 8d 34 24          	lea    (%rsp),%rsi
   53b46:	bf 01 00 00 00       	mov    $0x1,%edi
   53b4b:	c6 86 c7 00 00 00 00 	movb   $0x0,0xc7(%rsi)
   53b52:	e8 e9 28 00 00       	callq  56440 <mkl_serv_iface_print_verbose_info>
   53b57:	e9 9f fe ff ff       	jmpq   539fb <CGEMV+0x1eb>
   53b5c:	e8 9f 28 00 00       	callq  56400 <mkl_serv_iface_dsecnd>
   53b61:	0f 57 05 c8 ad 26 04 	xorps  0x426adc8(%rip),%xmm0        # 42be930 <verbose_unknown.309.0.1+0x10>
   53b68:	f2 0f 11 84 24 f0 00 	movsd  %xmm0,0xf0(%rsp)
   53b6f:	00 00 
   53b71:	e9 2a fe ff ff       	jmpq   539a0 <CGEMV+0x190>
   53b76:	e8 d5 28 00 00       	callq  56450 <mkl_serv_iface_verbose_mode>
   53b7b:	48 89 05 4e ea 60 04 	mov    %rax,0x460ea4e(%rip)        # 46625d0 <verbose_ptr.309.0.1>
   53b82:	e9 0e fe ff ff       	jmpq   53995 <CGEMV+0x185>
   53b87:	89 d8                	mov    %ebx,%eax
   53b89:	48 89 ee             	mov    %rbp,%rsi
   53b8c:	48 8b 94 24 f8 00 00 	mov    0xf8(%rsp),%rdx
   53b93:	00 
   53b94:	4d 89 e1             	mov    %r12,%r9
   53b97:	4c 89 e9             	mov    %r13,%rcx
   53b9a:	4c 89 f7             	mov    %r14,%rdi
   53b9d:	4d 89 f8             	mov    %r15,%r8
   53ba0:	83 f8 ff             	cmp    $0xffffffff,%eax
   53ba3:	0f 84 ba 01 00 00    	je     53d63 <CGEMV+0x553>
   53ba9:	48 8b 05 20 ea 60 04 	mov    0x460ea20(%rip),%rax        # 46625d0 <verbose_ptr.309.0.1>
   53bb0:	44 8b 10             	mov    (%rax),%r10d
   53bb3:	41 83 fa 01          	cmp    $0x1,%r10d
   53bb7:	0f 84 80 01 00 00    	je     53d3d <CGEMV+0x52d>
   53bbd:	45 85 d2             	test   %r10d,%r10d
   53bc0:	0f 85 d2 01 00 00    	jne    53d98 <CGEMV+0x588>
   53bc6:	8b 02                	mov    (%rdx),%eax
   53bc8:	85 c0                	test   %eax,%eax
   53bca:	74 05                	je     53bd1 <CGEMV+0x3c1>
   53bcc:	e8 2f f2 b6 00       	callq  bc2e00 <mkl_serv_inspector_unsuppress>
   53bd1:	48 81 c4 08 01 00 00 	add    $0x108,%rsp
   53bd8:	5d                   	pop    %rbp
   53bd9:	5b                   	pop    %rbx
   53bda:	41 5f                	pop    %r15
   53bdc:	41 5e                	pop    %r14
   53bde:	41 5d                	pop    %r13
   53be0:	41 5c                	pop    %r12
   53be2:	c3                   	retq   
   53be3:	66 0f ef c0          	pxor   %xmm0,%xmm0
   53be7:	66 0f 2e c8          	ucomisd %xmm0,%xmm1
   53beb:	7a 02                	jp     53bef <CGEMV+0x3df>
   53bed:	74 1b                	je     53c0a <CGEMV+0x3fa>
   53bef:	f2 0f 11 8c 24 f0 00 	movsd  %xmm1,0xf0(%rsp)
   53bf6:	00 00 
   53bf8:	e8 03 28 00 00       	callq  56400 <mkl_serv_iface_dsecnd>
   53bfd:	f2 0f 10 8c 24 f0 00 	movsd  0xf0(%rsp),%xmm1
   53c04:	00 00 
   53c06:	f2 0f 58 c8          	addsd  %xmm0,%xmm1
   53c0a:	48 85 db             	test   %rbx,%rbx
   53c0d:	74 43                	je     53c52 <CGEMV+0x442>
   53c0f:	49 89 d9             	mov    %rbx,%r9
   53c12:	48 89 e9             	mov    %rbp,%rcx
   53c15:	f2 0f 11 8c 24 f0 00 	movsd  %xmm1,0xf0(%rsp)
   53c1c:	00 00 
   53c1e:	4c 89 e0             	mov    %r12,%rax
   53c21:	4c 8b 84 24 60 01 00 	mov    0x160(%rsp),%r8
   53c28:	00 
   53c29:	4c 8b 9c 24 58 01 00 	mov    0x158(%rsp),%r11
   53c30:	00 
   53c31:	4c 8b 94 24 50 01 00 	mov    0x150(%rsp),%r10
   53c38:	00 
   53c39:	48 8b bc 24 48 01 00 	mov    0x148(%rsp),%rdi
   53c40:	00 
   53c41:	48 8b b4 24 40 01 00 	mov    0x140(%rsp),%rsi
   53c48:	00 
   53c49:	48 8b 14 24          	mov    (%rsp),%rdx
   53c4d:	45 8b 09             	mov    (%r9),%r9d
   53c50:	eb 3e                	jmp    53c90 <CGEMV+0x480>
   53c52:	f2 0f 11 8c 24 f0 00 	movsd  %xmm1,0xf0(%rsp)
   53c59:	00 00 
   53c5b:	48 89 e9             	mov    %rbp,%rcx
   53c5e:	4c 8b 84 24 60 01 00 	mov    0x160(%rsp),%r8
   53c65:	00 
   53c66:	4c 89 e0             	mov    %r12,%rax
   53c69:	4c 8b 9c 24 58 01 00 	mov    0x158(%rsp),%r11
   53c70:	00 
   53c71:	45 33 c9             	xor    %r9d,%r9d
   53c74:	4c 8b 94 24 50 01 00 	mov    0x150(%rsp),%r10
   53c7b:	00 
   53c7c:	48 8b bc 24 48 01 00 	mov    0x148(%rsp),%rdi
   53c83:	00 
   53c84:	48 8b b4 24 40 01 00 	mov    0x140(%rsp),%rsi
   53c8b:	00 
   53c8c:	48 8b 14 24          	mov    (%rsp),%rdx
   53c90:	4d 85 ed             	test   %r13,%r13
   53c93:	74 06                	je     53c9b <CGEMV+0x48b>
   53c95:	45 8b 6d 00          	mov    0x0(%r13),%r13d
   53c99:	eb 03                	jmp    53c9e <CGEMV+0x48e>
   53c9b:	45 33 ed             	xor    %r13d,%r13d
   53c9e:	48 85 c9             	test   %rcx,%rcx
   53ca1:	74 04                	je     53ca7 <CGEMV+0x497>
   53ca3:	8b 09                	mov    (%rcx),%ecx
   53ca5:	eb 02                	jmp    53ca9 <CGEMV+0x499>
   53ca7:	33 c9                	xor    %ecx,%ecx
   53ca9:	48 85 ff             	test   %rdi,%rdi
   53cac:	74 04                	je     53cb2 <CGEMV+0x4a2>
   53cae:	8b 3f                	mov    (%rdi),%edi
   53cb0:	eb 02                	jmp    53cb4 <CGEMV+0x4a4>
   53cb2:	33 ff                	xor    %edi,%edi
   53cb4:	4d 85 c0             	test   %r8,%r8
   53cb7:	74 05                	je     53cbe <CGEMV+0x4ae>
   53cb9:	45 8b 00             	mov    (%r8),%r8d
   53cbc:	eb 03                	jmp    53cc1 <CGEMV+0x4b1>
   53cbe:	45 33 c0             	xor    %r8d,%r8d
   53cc1:	48 83 c4 b0          	add    $0xffffffffffffffb0,%rsp
   53cc5:	44 89 2c 24          	mov    %r13d,(%rsp)
   53cc9:	48 89 44 24 08       	mov    %rax,0x8(%rsp)
   53cce:	33 c0                	xor    %eax,%eax
   53cd0:	48 89 54 24 10       	mov    %rdx,0x10(%rsp)
   53cd5:	ba c7 00 00 00       	mov    $0xc7,%edx
   53cda:	89 4c 24 18          	mov    %ecx,0x18(%rsp)
   53cde:	48 8d 0d 0b ac 26 04 	lea    0x426ac0b(%rip),%rcx        # 42be8f0 <verbose_unknown.309.0.1+0x20>
   53ce5:	48 89 74 24 20       	mov    %rsi,0x20(%rsp)
   53cea:	be c8 00 00 00       	mov    $0xc8,%esi
   53cef:	89 7c 24 28          	mov    %edi,0x28(%rsp)
   53cf3:	48 8d 7c 24 50       	lea    0x50(%rsp),%rdi
   53cf8:	4c 89 54 24 30       	mov    %r10,0x30(%rsp)
   53cfd:	45 0f be 2e          	movsbl (%r14),%r13d
   53d01:	4c 89 5c 24 38       	mov    %r11,0x38(%rsp)
   53d06:	44 89 44 24 40       	mov    %r8d,0x40(%rsp)
   53d0b:	45 89 e8             	mov    %r13d,%r8d
   53d0e:	e8 9d e3 01 00       	callq  720b0 <mkl_serv_snprintf_s>
   53d13:	48 83 c4 50          	add    $0x50,%rsp
   53d17:	f2 0f 10 84 24 f0 00 	movsd  0xf0(%rsp),%xmm0
   53d1e:	00 00 
   53d20:	48 8d 34 24          	lea    (%rsp),%rsi
   53d24:	bf 01 00 00 00       	mov    $0x1,%edi
   53d29:	c6 86 c7 00 00 00 00 	movb   $0x0,0xc7(%rsi)
   53d30:	e8 0b 27 00 00       	callq  56440 <mkl_serv_iface_print_verbose_info>
   53d35:	4c 89 fa             	mov    %r15,%rdx
   53d38:	e9 89 fe ff ff       	jmpq   53bc6 <CGEMV+0x3b6>
   53d3d:	49 89 d7             	mov    %rdx,%r15
   53d40:	49 89 cd             	mov    %rcx,%r13
   53d43:	48 89 f3             	mov    %rsi,%rbx
   53d46:	49 89 fe             	mov    %rdi,%r14
   53d49:	4d 89 c4             	mov    %r8,%r12
   53d4c:	4c 89 cd             	mov    %r9,%rbp
   53d4f:	e8 ac 26 00 00       	callq  56400 <mkl_serv_iface_dsecnd>
   53d54:	0f 28 c8             	movaps %xmm0,%xmm1
   53d57:	0f 57 0d d2 ab 26 04 	xorps  0x426abd2(%rip),%xmm1        # 42be930 <verbose_unknown.309.0.1+0x10>
   53d5e:	e9 80 fe ff ff       	jmpq   53be3 <CGEMV+0x3d3>
   53d63:	49 89 d7             	mov    %rdx,%r15
   53d66:	49 89 cd             	mov    %rcx,%r13
   53d69:	48 89 f3             	mov    %rsi,%rbx
   53d6c:	49 89 fe             	mov    %rdi,%r14
   53d6f:	4d 89 c4             	mov    %r8,%r12
   53d72:	4c 89 cd             	mov    %r9,%rbp
   53d75:	e8 d6 26 00 00       	callq  56450 <mkl_serv_iface_verbose_mode>
   53d7a:	48 89 05 4f e8 60 04 	mov    %rax,0x460e84f(%rip)        # 46625d0 <verbose_ptr.309.0.1>
   53d81:	48 89 de             	mov    %rbx,%rsi
   53d84:	49 89 e9             	mov    %rbp,%r9
   53d87:	4d 89 e0             	mov    %r12,%r8
   53d8a:	4c 89 e9             	mov    %r13,%rcx
   53d8d:	4c 89 f7             	mov    %r14,%rdi
   53d90:	4c 89 fa             	mov    %r15,%rdx
   53d93:	e9 18 fe ff ff       	jmpq   53bb0 <CGEMV+0x3a0>
   53d98:	f2 0f 10 8c 24 f0 00 	movsd  0xf0(%rsp),%xmm1
   53d9f:	00 00 
   53da1:	49 89 d7             	mov    %rdx,%r15
   53da4:	49 89 cd             	mov    %rcx,%r13
   53da7:	48 89 f3             	mov    %rsi,%rbx
   53daa:	49 89 fe             	mov    %rdi,%r14
   53dad:	4d 89 c4             	mov    %r8,%r12
   53db0:	4c 89 cd             	mov    %r9,%rbp
   53db3:	e9 2b fe ff ff       	jmpq   53be3 <CGEMV+0x3d3>
   53db8:	0f 1f 84 00 00 00 00 	nopl   0x0(%rax,%rax,1)