00000000000504d0 <cblas_cgemv>:
   504d0:	41 54                	push   %r12
   504d2:	41 56                	push   %r14
   504d4:	41 57                	push   %r15
   504d6:	53                   	push   %rbx
   504d7:	55                   	push   %rbp
   504d8:	48 83 ec 70          	sub    $0x70,%rsp
   504dc:	4c 89 c5             	mov    %r8,%rbp
   504df:	48 8b 84 24 a8 00 00 	mov    0xa8(%rsp),%rax
   504e6:	00 
   504e7:	41 89 f6             	mov    %esi,%r14d
   504ea:	4c 8b bc 24 c0 00 00 	mov    0xc0(%rsp),%r15
   504f1:	00 
   504f2:	48 89 c3             	mov    %rax,%rbx
   504f5:	4c 8b a4 24 b8 00 00 	mov    0xb8(%rsp),%r12
   504fc:	00 
   504fd:	4d 89 fb             	mov    %r15,%r11
   50500:	8b b4 24 b0 00 00 00 	mov    0xb0(%rsp),%esi
   50507:	89 54 24 60          	mov    %edx,0x60(%rsp)
   5050b:	89 4c 24 68          	mov    %ecx,0x68(%rsp)
   5050f:	83 ff 66             	cmp    $0x66,%edi
   50512:	0f 85 5e 01 00 00    	jne    50676 <cblas_cgemv+0x1a6>
   50518:	44 89 f7             	mov    %r14d,%edi
   5051b:	4d 89 c8             	mov    %r9,%r8
   5051e:	89 74 24 58          	mov    %esi,0x58(%rsp)
   50522:	49 89 e9             	mov    %rbp,%r9
   50525:	4c 89 e2             	mov    %r12,%rdx
   50528:	4c 89 f9             	mov    %r15,%rcx
   5052b:	83 ff 6f             	cmp    $0x6f,%edi
   5052e:	74 49                	je     50579 <cblas_cgemv+0xa9>
   50530:	83 ff 70             	cmp    $0x70,%edi
   50533:	75 07                	jne    5053c <cblas_cgemv+0x6c>
   50535:	c6 44 24 5c 54       	movb   $0x54,0x5c(%rsp)
   5053a:	eb 42                	jmp    5057e <cblas_cgemv+0xae>
   5053c:	83 ff 71             	cmp    $0x71,%edi
   5053f:	75 07                	jne    50548 <cblas_cgemv+0x78>
   50541:	c6 44 24 5c 43       	movb   $0x43,0x5c(%rsp)
   50546:	eb 36                	jmp    5057e <cblas_cgemv+0xae>
   50548:	48 8d 3d f1 e0 26 04 	lea    0x426e0f1(%rip),%rdi        # 42be640 <verbose_unknown.310.0.1+0x20>
   5054f:	be 02 00 00 00       	mov    $0x2,%esi
   50554:	48 89 c3             	mov    %rax,%rbx
   50557:	49 89 d4             	mov    %rdx,%r12
   5055a:	49 89 cf             	mov    %rcx,%r15
   5055d:	4d 89 c6             	mov    %r8,%r14
   50560:	4c 89 cd             	mov    %r9,%rbp
   50563:	e8 58 87 00 00       	callq  58cc0 <cblas_xerbla>
   50568:	48 89 d8             	mov    %rbx,%rax
   5056b:	49 89 e9             	mov    %rbp,%r9
   5056e:	4c 89 e2             	mov    %r12,%rdx
   50571:	4d 89 f0             	mov    %r14,%r8
   50574:	4c 89 f9             	mov    %r15,%rcx
   50577:	eb 05                	jmp    5057e <cblas_cgemv+0xae>
   50579:	c6 44 24 5c 4e       	movb   $0x4e,0x5c(%rsp)
   5057e:	8b 7c 24 60          	mov    0x60(%rsp),%edi
   50582:	85 ff                	test   %edi,%edi
   50584:	0f 8c f0 04 00 00    	jl     50a7a <cblas_cgemv+0x5aa>
   5058a:	44 8b 5c 24 68       	mov    0x68(%rsp),%r11d
   5058f:	45 85 db             	test   %r11d,%r11d
   50592:	0f 8c cf 04 00 00    	jl     50a67 <cblas_cgemv+0x597>
   50598:	be 01 00 00 00       	mov    $0x1,%esi
   5059d:	83 ff 01             	cmp    $0x1,%edi
   505a0:	0f 4f f7             	cmovg  %edi,%esi
   505a3:	3b b4 24 a0 00 00 00 	cmp    0xa0(%rsp),%esi
   505aa:	0f 8f a4 04 00 00    	jg     50a54 <cblas_cgemv+0x584>
   505b0:	83 bc 24 b0 00 00 00 	cmpl   $0x0,0xb0(%rsp)
   505b7:	00 
   505b8:	0f 84 06 05 00 00    	je     50ac4 <cblas_cgemv+0x5f4>
   505be:	83 bc 24 c8 00 00 00 	cmpl   $0x0,0xc8(%rsp)
   505c5:	00 
   505c6:	0f 84 75 04 00 00    	je     50a41 <cblas_cgemv+0x571>
   505cc:	85 ff                	test   %edi,%edi
   505ce:	0f 84 3e 04 00 00    	je     50a12 <cblas_cgemv+0x542>
   505d4:	45 85 db             	test   %r11d,%r11d
   505d7:	0f 84 35 04 00 00    	je     50a12 <cblas_cgemv+0x542>
   505dd:	f3 41 0f 10 01       	movss  (%r9),%xmm0
   505e2:	66 0f ef c9          	pxor   %xmm1,%xmm1
   505e6:	0f 2e c1             	ucomiss %xmm1,%xmm0
   505e9:	75 2e                	jne    50619 <cblas_cgemv+0x149>
   505eb:	7a 2c                	jp     50619 <cblas_cgemv+0x149>
   505ed:	f3 41 0f 10 41 04    	movss  0x4(%r9),%xmm0
   505f3:	0f 2e c1             	ucomiss %xmm1,%xmm0
   505f6:	75 21                	jne    50619 <cblas_cgemv+0x149>
   505f8:	7a 1f                	jp     50619 <cblas_cgemv+0x149>
   505fa:	f3 0f 10 02          	movss  (%rdx),%xmm0
   505fe:	0f 2e 05 5b e0 26 04 	ucomiss 0x426e05b(%rip),%xmm0        # 42be660 <verbose_unknown.310.0.1+0x40>
   50605:	75 12                	jne    50619 <cblas_cgemv+0x149>
   50607:	7a 10                	jp     50619 <cblas_cgemv+0x149>
   50609:	f3 0f 10 42 04       	movss  0x4(%rdx),%xmm0
   5060e:	0f 2e c1             	ucomiss %xmm1,%xmm0
   50611:	7a 06                	jp     50619 <cblas_cgemv+0x149>
   50613:	0f 84 f9 03 00 00    	je     50a12 <cblas_cgemv+0x542>
   50619:	48 83 c4 d0          	add    $0xffffffffffffffd0,%rsp
   5061d:	4c 8d 9c 24 e0 00 00 	lea    0xe0(%rsp),%r11
   50624:	00 
   50625:	48 8d bc 24 8c 00 00 	lea    0x8c(%rsp),%rdi
   5062c:	00 
   5062d:	48 8d b4 24 90 00 00 	lea    0x90(%rsp),%rsi
   50634:	00 
   50635:	48 89 04 24          	mov    %rax,(%rsp)
   50639:	48 8d 84 24 f8 00 00 	lea    0xf8(%rsp),%rax
   50640:	00 
   50641:	4c 89 5c 24 08       	mov    %r11,0x8(%rsp)
   50646:	48 89 54 24 10       	mov    %rdx,0x10(%rsp)
   5064b:	48 8d 94 24 98 00 00 	lea    0x98(%rsp),%rdx
   50652:	00 
   50653:	48 89 4c 24 18       	mov    %rcx,0x18(%rsp)
   50658:	4c 89 c9             	mov    %r9,%rcx
   5065b:	48 89 44 24 20       	mov    %rax,0x20(%rsp)
   50660:	4c 8d 8c 24 d0 00 00 	lea    0xd0(%rsp),%r9
   50667:	00 
   50668:	e8 a3 31 00 00       	callq  53810 <CGEMV>
   5066d:	48 83 c4 30          	add    $0x30,%rsp
   50671:	e9 be 03 00 00       	jmpq   50a34 <cblas_cgemv+0x564>
   50676:	83 ff 65             	cmp    $0x65,%edi
   50679:	0f 85 a0 03 00 00    	jne    50a1f <cblas_cgemv+0x54f>
   5067f:	4c 89 5c 24 30       	mov    %r11,0x30(%rsp)
   50684:	4c 89 44 24 38       	mov    %r8,0x38(%rsp)
   50689:	44 89 54 24 40       	mov    %r10d,0x40(%rsp)
   5068e:	48 89 44 24 48       	mov    %rax,0x48(%rsp)
   50693:	4c 89 6c 24 50       	mov    %r13,0x50(%rsp)
   50698:	4d 89 cd             	mov    %r9,%r13
   5069b:	85 d2                	test   %edx,%edx
   5069d:	0f 8c 47 05 00 00    	jl     50bea <cblas_cgemv+0x71a>
   506a3:	85 c9                	test   %ecx,%ecx
   506a5:	0f 8c 18 05 00 00    	jl     50bc3 <cblas_cgemv+0x6f3>
   506ab:	41 bb 01 00 00 00    	mov    $0x1,%r11d
   506b1:	83 f9 01             	cmp    $0x1,%ecx
   506b4:	44 0f 4f d9          	cmovg  %ecx,%r11d
   506b8:	44 3b 9c 24 a0 00 00 	cmp    0xa0(%rsp),%r11d
   506bf:	00 
   506c0:	0f 8f d6 04 00 00    	jg     50b9c <cblas_cgemv+0x6cc>
   506c6:	85 f6                	test   %esi,%esi
   506c8:	0f 84 a7 04 00 00    	je     50b75 <cblas_cgemv+0x6a5>
   506ce:	83 bc 24 c8 00 00 00 	cmpl   $0x0,0xc8(%rsp)
   506d5:	00 
   506d6:	0f 84 72 04 00 00    	je     50b4e <cblas_cgemv+0x67e>
   506dc:	85 d2                	test   %edx,%edx
   506de:	0f 84 29 03 00 00    	je     50a0d <cblas_cgemv+0x53d>
   506e4:	85 c9                	test   %ecx,%ecx
   506e6:	0f 84 21 03 00 00    	je     50a0d <cblas_cgemv+0x53d>
   506ec:	f3 0f 10 45 00       	movss  0x0(%rbp),%xmm0
   506f1:	66 0f ef c9          	pxor   %xmm1,%xmm1
   506f5:	0f 2e c1             	ucomiss %xmm1,%xmm0
   506f8:	7a 06                	jp     50700 <cblas_cgemv+0x230>
   506fa:	0f 84 da 03 00 00    	je     50ada <cblas_cgemv+0x60a>
   50700:	89 74 24 58          	mov    %esi,0x58(%rsp)
   50704:	41 83 fe 6f          	cmp    $0x6f,%r14d
   50708:	0f 84 53 02 00 00    	je     50961 <cblas_cgemv+0x491>
   5070e:	41 83 fe 70          	cmp    $0x70,%r14d
   50712:	75 0a                	jne    5071e <cblas_cgemv+0x24e>
   50714:	c6 44 24 5c 4e       	movb   $0x4e,0x5c(%rsp)
   50719:	e9 48 02 00 00       	jmpq   50966 <cblas_cgemv+0x496>
   5071e:	41 83 fe 71          	cmp    $0x71,%r14d
   50722:	0f 85 26 02 00 00    	jne    5094e <cblas_cgemv+0x47e>
   50728:	f3 0f 11 44 24 20    	movss  %xmm0,0x20(%rsp)
   5072e:	f3 0f 10 4d 04       	movss  0x4(%rbp),%xmm1
   50733:	f3 41 0f 10 44 24 04 	movss  0x4(%r12),%xmm0
   5073a:	41 8b 04 24          	mov    (%r12),%eax
   5073e:	0f 57 0d 0b df 26 04 	xorps  0x426df0b(%rip),%xmm1        # 42be650 <verbose_unknown.310.0.1+0x30>
   50745:	0f 57 05 04 df 26 04 	xorps  0x426df04(%rip),%xmm0        # 42be650 <verbose_unknown.310.0.1+0x30>
   5074c:	f3 0f 11 4c 24 24    	movss  %xmm1,0x24(%rsp)
   50752:	89 44 24 28          	mov    %eax,0x28(%rsp)
   50756:	f3 0f 11 44 24 2c    	movss  %xmm0,0x2c(%rsp)
   5075c:	c6 44 24 5c 4e       	movb   $0x4e,0x5c(%rsp)
   50761:	85 d2                	test   %edx,%edx
   50763:	0f 8e cc 01 00 00    	jle    50935 <cblas_cgemv+0x465>
   50769:	03 d2                	add    %edx,%edx
   5076b:	be 80 00 00 00       	mov    $0x80,%esi
   50770:	48 63 ea             	movslq %edx,%rbp
   50773:	44 89 34 24          	mov    %r14d,(%rsp)
   50777:	4c 89 6c 24 08       	mov    %r13,0x8(%rsp)
   5077c:	48 8d 3c ad 00 00 00 	lea    0x0(,%rbp,4),%rdi
   50783:	00 
   50784:	e8 a7 5c 00 00       	callq  56430 <mkl_serv_iface_allocate>
   50789:	48 89 44 24 10       	mov    %rax,0x10(%rsp)
   5078e:	49 89 c4             	mov    %rax,%r12
   50791:	4d 85 e4             	test   %r12,%r12
   50794:	0f 84 0c 03 00 00    	je     50aa6 <cblas_cgemv+0x5d6>
   5079a:	8b 9c 24 b0 00 00 00 	mov    0xb0(%rsp),%ebx
   507a1:	85 db                	test   %ebx,%ebx
   507a3:	0f 8e e4 02 00 00    	jle    50a8d <cblas_cgemv+0x5bd>
   507a9:	03 db                	add    %ebx,%ebx
   507ab:	41 bb 02 00 00 00    	mov    $0x2,%r11d
   507b1:	48 8d 0c a8          	lea    (%rax,%rbp,4),%rcx
   507b5:	48 63 f3             	movslq %ebx,%rsi
   507b8:	4a 8d 2c 9d 00 00 00 	lea    0x0(,%r11,4),%rbp
   507bf:	00 
   507c0:	48 89 ea             	mov    %rbp,%rdx
   507c3:	45 33 c9             	xor    %r9d,%r9d
   507c6:	48 f7 da             	neg    %rdx
   507c9:	45 33 d2             	xor    %r10d,%r10d
   507cc:	49 03 d4             	add    %r12,%rdx
   507cf:	48 89 d0             	mov    %rdx,%rax
   507d2:	4c 8d 04 b5 00 00 00 	lea    0x0(,%rsi,4),%r8
   507d9:	00 
   507da:	4c 89 c7             	mov    %r8,%rdi
   507dd:	48 2b c5             	sub    %rbp,%rax
   507e0:	48 f7 df             	neg    %rdi
   507e3:	48 f7 dd             	neg    %rbp
   507e6:	48 03 7c 24 48       	add    0x48(%rsp),%rdi
   507eb:	49 f7 d8             	neg    %r8
   507ee:	49 03 ec             	add    %r12,%rbp
   507f1:	4c 03 c7             	add    %rdi,%r8
   507f4:	4d 8d 14 f2          	lea    (%r10,%rsi,8),%r10
   507f8:	4f 8d 0c d9          	lea    (%r9,%r11,8),%r9
   507fc:	4e 8d 74 0d 00       	lea    0x0(%rbp,%r9,1),%r14
   50801:	f3 43 0f 10 44 02 04 	movss  0x4(%r10,%r8,1),%xmm0
   50808:	47 8b 2c 02          	mov    (%r10,%r8,1),%r13d
   5080c:	0f 57 05 3d de 26 04 	xorps  0x426de3d(%rip),%xmm0        # 42be650 <verbose_unknown.310.0.1+0x30>
   50813:	f3 41 0f 11 44 01 04 	movss  %xmm0,0x4(%r9,%rax,1)
   5081a:	45 89 2c 01          	mov    %r13d,(%r9,%rax,1)
   5081e:	4c 3b f1             	cmp    %rcx,%r14
   50821:	74 26                	je     50849 <cblas_cgemv+0x379>
   50823:	f3 41 0f 10 44 3a 04 	movss  0x4(%r10,%rdi,1),%xmm0
   5082a:	4f 8d 34 0c          	lea    (%r12,%r9,1),%r14
   5082e:	45 8b 2c 3a          	mov    (%r10,%rdi,1),%r13d
   50832:	0f 57 05 17 de 26 04 	xorps  0x426de17(%rip),%xmm0        # 42be650 <verbose_unknown.310.0.1+0x30>
   50839:	f3 41 0f 11 44 11 04 	movss  %xmm0,0x4(%r9,%rdx,1)
   50840:	45 89 2c 11          	mov    %r13d,(%r9,%rdx,1)
   50844:	4c 3b f1             	cmp    %rcx,%r14
   50847:	75 ab                	jne    507f4 <cblas_cgemv+0x324>
   50849:	4c 63 74 24 68       	movslq 0x68(%rsp),%r14
   5084e:	4d 8d 6f 04          	lea    0x4(%r15),%r13
   50852:	c7 44 24 58 01 00 00 	movl   $0x1,0x58(%rsp)
   50859:	00 
   5085a:	8b 84 24 c8 00 00 00 	mov    0xc8(%rsp),%eax
   50861:	4d 85 f6             	test   %r14,%r14
   50864:	0f 8e a7 03 00 00    	jle    50c11 <cblas_cgemv+0x741>
   5086a:	99                   	cltd   
   5086b:	33 c2                	xor    %edx,%eax
   5086d:	4d 89 f9             	mov    %r15,%r9
   50870:	2b c2                	sub    %edx,%eax
   50872:	45 33 db             	xor    %r11d,%r11d
   50875:	33 d2                	xor    %edx,%edx
   50877:	8d 1c 00             	lea    (%rax,%rax,1),%ebx
   5087a:	4c 63 c3             	movslq %ebx,%r8
   5087d:	4d 0f af f0          	imul   %r8,%r14
   50881:	4e 8d 14 85 00 00 00 	lea    0x0(,%r8,4),%r10
   50888:	00 
   50889:	4d 89 d4             	mov    %r10,%r12
   5088c:	4b 8d 2c 87          	lea    (%r15,%r8,4),%rbp
   50890:	49 f7 dc             	neg    %r12
   50893:	4d 2b ca             	sub    %r10,%r9
   50896:	4c 89 e6             	mov    %r12,%rsi
   50899:	4b 8d 4c b7 04       	lea    0x4(%r15,%r14,4),%rcx
   5089e:	49 2b f2             	sub    %r10,%rsi
   508a1:	49 f7 da             	neg    %r10
   508a4:	48 89 6c 24 18       	mov    %rbp,0x18(%rsp)
   508a9:	4b 8d 04 b7          	lea    (%r15,%r14,4),%rax
   508ad:	48 8d 7c 35 04       	lea    0x4(%rbp,%rsi,1),%rdi
   508b2:	4b 8d 2c 27          	lea    (%r15,%r12,1),%rbp
   508b6:	4c 03 d5             	add    %rbp,%r10
   508b9:	4a 8d 34 b5 00 00 00 	lea    0x0(,%r14,4),%rsi
   508c0:	00 
   508c1:	4f 8d 1c c3          	lea    (%r11,%r8,8),%r11
   508c5:	4f 8d 34 19          	lea    (%r9,%r11,1),%r14
   508c9:	4a 8d 14 c2          	lea    (%rdx,%r8,8),%rdx
   508cd:	f3 43 0f 10 44 13 04 	movss  0x4(%r11,%r10,1),%xmm0
   508d4:	4c 8d 2c 17          	lea    (%rdi,%rdx,1),%r13
   508d8:	0f 57 05 71 dd 26 04 	xorps  0x426dd71(%rip),%xmm0        # 42be650 <verbose_unknown.310.0.1+0x30>
   508df:	f3 43 0f 11 44 13 04 	movss  %xmm0,0x4(%r11,%r10,1)
   508e6:	4c 3b f0             	cmp    %rax,%r14
   508e9:	74 2b                	je     50916 <cblas_cgemv+0x446>
   508eb:	4c 8b 6c 24 18       	mov    0x18(%rsp),%r13
   508f0:	4f 8d 34 1f          	lea    (%r15,%r11,1),%r14
   508f4:	f3 41 0f 10 44 2b 04 	movss  0x4(%r11,%rbp,1),%xmm0
   508fb:	0f 57 05 4e dd 26 04 	xorps  0x426dd4e(%rip),%xmm0        # 42be650 <verbose_unknown.310.0.1+0x30>
   50902:	f3 41 0f 11 44 2b 04 	movss  %xmm0,0x4(%r11,%rbp,1)
   50909:	4f 8d 6c 25 04       	lea    0x4(%r13,%r12,1),%r13
   5090e:	4c 03 ea             	add    %rdx,%r13
   50911:	4c 3b f0             	cmp    %rax,%r14
   50914:	75 ab                	jne    508c1 <cblas_cgemv+0x3f1>
   50916:	4c 2b ee             	sub    %rsi,%r13
   50919:	4c 89 6c 24 30       	mov    %r13,0x30(%rsp)
   5091e:	89 5c 24 40          	mov    %ebx,0x40(%rsp)
   50922:	48 89 4c 24 38       	mov    %rcx,0x38(%rsp)
   50927:	48 8b 5c 24 10       	mov    0x10(%rsp),%rbx
   5092c:	44 8b 34 24          	mov    (%rsp),%r14d
   50930:	4c 8b 6c 24 08       	mov    0x8(%rsp),%r13
   50935:	48 8d 6c 24 20       	lea    0x20(%rsp),%rbp
   5093a:	4c 8d 5c 24 58       	lea    0x58(%rsp),%r11
   5093f:	4c 8d 64 24 28       	lea    0x28(%rsp),%r12
   50944:	48 8d b4 24 c8 00 00 	lea    0xc8(%rsp),%rsi
   5094b:	00 
   5094c:	eb 25                	jmp    50973 <cblas_cgemv+0x4a3>
   5094e:	48 8d 3d eb dc 26 04 	lea    0x426dceb(%rip),%rdi        # 42be640 <verbose_unknown.310.0.1+0x20>
   50955:	be 02 00 00 00       	mov    $0x2,%esi
   5095a:	e8 61 83 00 00       	callq  58cc0 <cblas_xerbla>
   5095f:	eb 05                	jmp    50966 <cblas_cgemv+0x496>
   50961:	c6 44 24 5c 54       	movb   $0x54,0x5c(%rsp)
   50966:	4c 8d 5c 24 58       	lea    0x58(%rsp),%r11
   5096b:	48 8d b4 24 c8 00 00 	lea    0xc8(%rsp),%rsi
   50972:	00 
   50973:	48 83 c4 d0          	add    $0xffffffffffffffd0,%rsp
   50977:	48 89 e9             	mov    %rbp,%rcx
   5097a:	4d 89 e8             	mov    %r13,%r8
   5097d:	48 8d bc 24 8c 00 00 	lea    0x8c(%rsp),%rdi
   50984:	00 
   50985:	48 8d 94 24 90 00 00 	lea    0x90(%rsp),%rdx
   5098c:	00 
   5098d:	4c 8d 8c 24 d0 00 00 	lea    0xd0(%rsp),%r9
   50994:	00 
   50995:	48 89 1c 24          	mov    %rbx,(%rsp)
   50999:	4c 89 5c 24 08       	mov    %r11,0x8(%rsp)
   5099e:	4c 89 64 24 10       	mov    %r12,0x10(%rsp)
   509a3:	4c 89 7c 24 18       	mov    %r15,0x18(%rsp)
   509a8:	48 89 74 24 20       	mov    %rsi,0x20(%rsp)
   509ad:	48 8d b4 24 98 00 00 	lea    0x98(%rsp),%rsi
   509b4:	00 
   509b5:	e8 56 2e 00 00       	callq  53810 <CGEMV>
   509ba:	48 83 c4 30          	add    $0x30,%rsp
   509be:	41 83 fe 71          	cmp    $0x71,%r14d
   509c2:	75 42                	jne    50a06 <cblas_cgemv+0x536>
   509c4:	48 8b 44 24 48       	mov    0x48(%rsp),%rax
   509c9:	8b 6c 24 40          	mov    0x40(%rsp),%ebp
   509cd:	48 3b d8             	cmp    %rax,%rbx
   509d0:	74 08                	je     509da <cblas_cgemv+0x50a>
   509d2:	48 89 df             	mov    %rbx,%rdi
   509d5:	e8 46 5a 00 00       	callq  56420 <mkl_serv_iface_deallocate>
   509da:	83 7c 24 68 00       	cmpl   $0x0,0x68(%rsp)
   509df:	7e 25                	jle    50a06 <cblas_cgemv+0x536>
   509e1:	48 63 ed             	movslq %ebp,%rbp
   509e4:	48 8b 44 24 30       	mov    0x30(%rsp),%rax
   509e9:	48 8b 54 24 38       	mov    0x38(%rsp),%rdx
   509ee:	f3 0f 10 00          	movss  (%rax),%xmm0
   509f2:	0f 57 05 57 dc 26 04 	xorps  0x426dc57(%rip),%xmm0        # 42be650 <verbose_unknown.310.0.1+0x30>
   509f9:	f3 0f 11 00          	movss  %xmm0,(%rax)
   509fd:	48 8d 04 a8          	lea    (%rax,%rbp,4),%rax
   50a01:	48 3b c2             	cmp    %rdx,%rax
   50a04:	75 e8                	jne    509ee <cblas_cgemv+0x51e>
   50a06:	4c 8b 6c 24 50       	mov    0x50(%rsp),%r13
   50a0b:	eb 27                	jmp    50a34 <cblas_cgemv+0x564>
   50a0d:	4c 8b 6c 24 50       	mov    0x50(%rsp),%r13
   50a12:	48 83 c4 70          	add    $0x70,%rsp
   50a16:	5d                   	pop    %rbp
   50a17:	5b                   	pop    %rbx
   50a18:	41 5f                	pop    %r15
   50a1a:	41 5e                	pop    %r14
   50a1c:	41 5c                	pop    %r12
   50a1e:	c3                   	retq   
   50a1f:	89 74 24 58          	mov    %esi,0x58(%rsp)
   50a23:	48 8d 3d 16 dc 26 04 	lea    0x426dc16(%rip),%rdi        # 42be640 <verbose_unknown.310.0.1+0x20>
   50a2a:	be 01 00 00 00       	mov    $0x1,%esi
   50a2f:	e8 8c 82 00 00       	callq  58cc0 <cblas_xerbla>
   50a34:	48 83 c4 70          	add    $0x70,%rsp
   50a38:	5d                   	pop    %rbp
   50a39:	5b                   	pop    %rbx
   50a3a:	41 5f                	pop    %r15
   50a3c:	41 5e                	pop    %r14
   50a3e:	41 5c                	pop    %r12
   50a40:	c3                   	retq   
   50a41:	48 8d 3d f8 db 26 04 	lea    0x426dbf8(%rip),%rdi        # 42be640 <verbose_unknown.310.0.1+0x20>
   50a48:	be 0c 00 00 00       	mov    $0xc,%esi
   50a4d:	e8 6e 82 00 00       	callq  58cc0 <cblas_xerbla>
   50a52:	eb e0                	jmp    50a34 <cblas_cgemv+0x564>
   50a54:	48 8d 3d e5 db 26 04 	lea    0x426dbe5(%rip),%rdi        # 42be640 <verbose_unknown.310.0.1+0x20>
   50a5b:	be 07 00 00 00       	mov    $0x7,%esi
   50a60:	e8 5b 82 00 00       	callq  58cc0 <cblas_xerbla>
   50a65:	eb cd                	jmp    50a34 <cblas_cgemv+0x564>
   50a67:	48 8d 3d d2 db 26 04 	lea    0x426dbd2(%rip),%rdi        # 42be640 <verbose_unknown.310.0.1+0x20>
   50a6e:	be 04 00 00 00       	mov    $0x4,%esi
   50a73:	e8 48 82 00 00       	callq  58cc0 <cblas_xerbla>
   50a78:	eb ba                	jmp    50a34 <cblas_cgemv+0x564>
   50a7a:	48 8d 3d bf db 26 04 	lea    0x426dbbf(%rip),%rdi        # 42be640 <verbose_unknown.310.0.1+0x20>
   50a81:	be 03 00 00 00       	mov    $0x3,%esi
   50a86:	e8 35 82 00 00       	callq  58cc0 <cblas_xerbla>
   50a8b:	eb a7                	jmp    50a34 <cblas_cgemv+0x564>
   50a8d:	03 db                	add    %ebx,%ebx
   50a8f:	49 c7 c3 fe ff ff ff 	mov    $0xfffffffffffffffe,%r11
   50a96:	f7 db                	neg    %ebx
   50a98:	48 8d 48 f8          	lea    -0x8(%rax),%rcx
   50a9c:	4c 8d 64 a8 f8       	lea    -0x8(%rax,%rbp,4),%r12
   50aa1:	e9 0f fd ff ff       	jmpq   507b5 <cblas_cgemv+0x2e5>
   50aa6:	48 8d 3d 93 db 26 04 	lea    0x426db93(%rip),%rdi        # 42be640 <verbose_unknown.310.0.1+0x20>
   50aad:	4c 8b 6c 24 50       	mov    0x50(%rsp),%r13
   50ab2:	e8 49 82 00 00       	callq  58d00 <cblas_xerbla_malloc_error>
   50ab7:	48 83 c4 70          	add    $0x70,%rsp
   50abb:	5d                   	pop    %rbp
   50abc:	5b                   	pop    %rbx
   50abd:	41 5f                	pop    %r15
   50abf:	41 5e                	pop    %r14
   50ac1:	41 5c                	pop    %r12
   50ac3:	c3                   	retq   
   50ac4:	48 8d 3d 75 db 26 04 	lea    0x426db75(%rip),%rdi        # 42be640 <verbose_unknown.310.0.1+0x20>
   50acb:	be 09 00 00 00       	mov    $0x9,%esi
   50ad0:	e8 eb 81 00 00       	callq  58cc0 <cblas_xerbla>
   50ad5:	e9 5a ff ff ff       	jmpq   50a34 <cblas_cgemv+0x564>
   50ada:	f3 0f 10 55 04       	movss  0x4(%rbp),%xmm2
   50adf:	0f 2e d1             	ucomiss %xmm1,%xmm2
   50ae2:	0f 85 18 fc ff ff    	jne    50700 <cblas_cgemv+0x230>
   50ae8:	0f 8a 12 fc ff ff    	jp     50700 <cblas_cgemv+0x230>
   50aee:	f3 41 0f 10 14 24    	movss  (%r12),%xmm2
   50af4:	0f 2e 15 65 db 26 04 	ucomiss 0x426db65(%rip),%xmm2        # 42be660 <verbose_unknown.310.0.1+0x40>
   50afb:	0f 85 ff fb ff ff    	jne    50700 <cblas_cgemv+0x230>
   50b01:	0f 8a f9 fb ff ff    	jp     50700 <cblas_cgemv+0x230>
   50b07:	4c 89 e0             	mov    %r12,%rax
   50b0a:	48 89 df             	mov    %rbx,%rdi
   50b0d:	f3 0f 10 50 04       	movss  0x4(%rax),%xmm2
   50b12:	49 89 e9             	mov    %rbp,%r9
   50b15:	4d 89 ea             	mov    %r13,%r10
   50b18:	45 89 f0             	mov    %r14d,%r8d
   50b1b:	4c 8b 6c 24 50       	mov    0x50(%rsp),%r13
   50b20:	4c 89 f9             	mov    %r15,%rcx
   50b23:	0f 2e d1             	ucomiss %xmm1,%xmm2
   50b26:	7a 06                	jp     50b2e <cblas_cgemv+0x65e>
   50b28:	0f 84 e4 fe ff ff    	je     50a12 <cblas_cgemv+0x542>
   50b2e:	4c 89 6c 24 50       	mov    %r13,0x50(%rsp)
   50b33:	49 89 c4             	mov    %rax,%r12
   50b36:	89 74 24 58          	mov    %esi,0x58(%rsp)
   50b3a:	49 89 cf             	mov    %rcx,%r15
   50b3d:	48 89 fb             	mov    %rdi,%rbx
   50b40:	45 89 c6             	mov    %r8d,%r14d
   50b43:	4c 89 cd             	mov    %r9,%rbp
   50b46:	4d 89 d5             	mov    %r10,%r13
   50b49:	e9 b6 fb ff ff       	jmpq   50704 <cblas_cgemv+0x234>
   50b4e:	89 74 24 58          	mov    %esi,0x58(%rsp)
   50b52:	48 8d 3d e7 da 26 04 	lea    0x426dae7(%rip),%rdi        # 42be640 <verbose_unknown.310.0.1+0x20>
   50b59:	be 0c 00 00 00       	mov    $0xc,%esi
   50b5e:	4c 8b 6c 24 50       	mov    0x50(%rsp),%r13
   50b63:	e8 58 81 00 00       	callq  58cc0 <cblas_xerbla>
   50b68:	48 83 c4 70          	add    $0x70,%rsp
   50b6c:	5d                   	pop    %rbp
   50b6d:	5b                   	pop    %rbx
   50b6e:	41 5f                	pop    %r15
   50b70:	41 5e                	pop    %r14
   50b72:	41 5c                	pop    %r12
   50b74:	c3                   	retq   
   50b75:	89 74 24 58          	mov    %esi,0x58(%rsp)
   50b79:	48 8d 3d c0 da 26 04 	lea    0x426dac0(%rip),%rdi        # 42be640 <verbose_unknown.310.0.1+0x20>
   50b80:	be 09 00 00 00       	mov    $0x9,%esi
   50b85:	4c 8b 6c 24 50       	mov    0x50(%rsp),%r13
   50b8a:	e8 31 81 00 00       	callq  58cc0 <cblas_xerbla>
   50b8f:	48 83 c4 70          	add    $0x70,%rsp
   50b93:	5d                   	pop    %rbp
   50b94:	5b                   	pop    %rbx
   50b95:	41 5f                	pop    %r15
   50b97:	41 5e                	pop    %r14
   50b99:	41 5c                	pop    %r12
   50b9b:	c3                   	retq   
   50b9c:	89 74 24 58          	mov    %esi,0x58(%rsp)
   50ba0:	48 8d 3d 99 da 26 04 	lea    0x426da99(%rip),%rdi        # 42be640 <verbose_unknown.310.0.1+0x20>
   50ba7:	be 07 00 00 00       	mov    $0x7,%esi
   50bac:	4c 8b 6c 24 50       	mov    0x50(%rsp),%r13
   50bb1:	e8 0a 81 00 00       	callq  58cc0 <cblas_xerbla>
   50bb6:	48 83 c4 70          	add    $0x70,%rsp
   50bba:	5d                   	pop    %rbp
   50bbb:	5b                   	pop    %rbx
   50bbc:	41 5f                	pop    %r15
   50bbe:	41 5e                	pop    %r14
   50bc0:	41 5c                	pop    %r12
   50bc2:	c3                   	retq   
   50bc3:	89 74 24 58          	mov    %esi,0x58(%rsp)
   50bc7:	48 8d 3d 72 da 26 04 	lea    0x426da72(%rip),%rdi        # 42be640 <verbose_unknown.310.0.1+0x20>
   50bce:	be 04 00 00 00       	mov    $0x4,%esi
   50bd3:	4c 8b 6c 24 50       	mov    0x50(%rsp),%r13
   50bd8:	e8 e3 80 00 00       	callq  58cc0 <cblas_xerbla>
   50bdd:	48 83 c4 70          	add    $0x70,%rsp
   50be1:	5d                   	pop    %rbp
   50be2:	5b                   	pop    %rbx
   50be3:	41 5f                	pop    %r15
   50be5:	41 5e                	pop    %r14
   50be7:	41 5c                	pop    %r12
   50be9:	c3                   	retq   
   50bea:	89 74 24 58          	mov    %esi,0x58(%rsp)
   50bee:	48 8d 3d 4b da 26 04 	lea    0x426da4b(%rip),%rdi        # 42be640 <verbose_unknown.310.0.1+0x20>
   50bf5:	be 03 00 00 00       	mov    $0x3,%esi
   50bfa:	4c 8b 6c 24 50       	mov    0x50(%rsp),%r13
   50bff:	e8 bc 80 00 00       	callq  58cc0 <cblas_xerbla>
   50c04:	48 83 c4 70          	add    $0x70,%rsp
   50c08:	5d                   	pop    %rbp
   50c09:	5b                   	pop    %rbx
   50c0a:	41 5f                	pop    %r15
   50c0c:	41 5e                	pop    %r14
   50c0e:	41 5c                	pop    %r12
   50c10:	c3                   	retq   
   50c11:	4c 89 6c 24 30       	mov    %r13,0x30(%rsp)
   50c16:	89 5c 24 40          	mov    %ebx,0x40(%rsp)
   50c1a:	48 89 4c 24 38       	mov    %rcx,0x38(%rsp)
   50c1f:	48 8b 5c 24 10       	mov    0x10(%rsp),%rbx
   50c24:	44 8b 34 24          	mov    (%rsp),%r14d
   50c28:	4c 8b 6c 24 08       	mov    0x8(%rsp),%r13
   50c2d:	e9 03 fd ff ff       	jmpq   50935 <cblas_cgemv+0x465>
   50c32:	0f 1f 80 00 00 00 00 	nopl   0x0(%rax)
   50c39:	0f 1f 80 00 00 00 00 	nopl   0x0(%rax)